target datalayout = "e-m:e-p270:32:32-p271:32:32-p272:64:64-i64:64-i128:128-f80:128-n8:16:32:64-S128"
target triple = "x86_64-pc-linux-gnu"

%struct.block_operations = type { ptr, ptr, ptr, ptr, ptr, ptr, ptr }
%struct.rd_struct_s = type { i32, i16, i8, i8, ptr }

@.str = private unnamed_addr constant [11 x i8] c"/dev/ram%d\00", align 1
@g_bops = internal constant %struct.block_operations { ptr @rd_open, ptr @rd_close, ptr @rd_read, ptr @rd_write, ptr @rd_geometry, ptr @rd_ioctl, ptr @rd_unlink }, align 8

; Function Attrs: nounwind uwtable
define i32 @ramdisk_register(i32 noundef %0, ptr noundef %1, i32 noundef %2, i16 noundef zeroext %3, i8 noundef zeroext %4) #0 {
  %6 = alloca i32, align 4
  %7 = alloca ptr, align 8
  %8 = alloca i32, align 4
  %9 = alloca i16, align 2
  %10 = alloca i8, align 1
  %11 = alloca ptr, align 8
  %12 = alloca [16 x i8], align 16
  %13 = alloca i32, align 4
  store i32 %0, ptr %6, align 4
  store ptr %1, ptr %7, align 8
  store i32 %2, ptr %8, align 4
  store i16 %3, ptr %9, align 2
  store i8 %4, ptr %10, align 1
  store i32 -12, ptr %13, align 4
  br label %14

14:                                               ; preds = %5
  br label %15

15:                                               ; preds = %14
  %16 = call noalias ptr @zalloc(i64 noundef 16) #6
  store ptr %16, ptr %11, align 8
  %17 = load ptr, ptr %11, align 8
  %18 = icmp ne ptr %17, null
  br i1 %18, label %19, label %48

19:                                               ; preds = %15
  %20 = load i32, ptr %8, align 4
  %21 = load ptr, ptr %11, align 8
  %22 = getelementptr inbounds %struct.rd_struct_s, ptr %21, i32 0, i32 0
  store i32 %20, ptr %22, align 8
  %23 = load i16, ptr %9, align 2
  %24 = load ptr, ptr %11, align 8
  %25 = getelementptr inbounds %struct.rd_struct_s, ptr %24, i32 0, i32 1
  store i16 %23, ptr %25, align 4
  %26 = load ptr, ptr %7, align 8
  %27 = load ptr, ptr %11, align 8
  %28 = getelementptr inbounds %struct.rd_struct_s, ptr %27, i32 0, i32 4
  store ptr %26, ptr %28, align 8
  %29 = load i8, ptr %10, align 1
  %30 = zext i8 %29 to i32
  %31 = and i32 %30, 3
  %32 = trunc i32 %31 to i8
  %33 = load ptr, ptr %11, align 8
  %34 = getelementptr inbounds %struct.rd_struct_s, ptr %33, i32 0, i32 3
  store i8 %32, ptr %34, align 1
  %35 = getelementptr inbounds [16 x i8], ptr %12, i64 0, i64 0
  %36 = load i32, ptr %6, align 4
  %37 = call i32 (ptr, i64, ptr, ...) @snprintf(ptr noundef %35, i64 noundef 16, ptr noundef @.str, i32 noundef %36) #7
  %38 = getelementptr inbounds [16 x i8], ptr %12, i64 0, i64 0
  %39 = load ptr, ptr %11, align 8
  %40 = call i32 @register_blockdriver(ptr noundef %38, ptr noundef @g_bops, i32 noundef 0, ptr noundef %39)
  store i32 %40, ptr %13, align 4
  %41 = load i32, ptr %13, align 4
  %42 = icmp slt i32 %41, 0
  br i1 %42, label %43, label %47

43:                                               ; preds = %19
  br label %44

44:                                               ; preds = %43
  br label %45

45:                                               ; preds = %44
  %46 = load ptr, ptr %11, align 8
  call void @free(ptr noundef %46)
  br label %47

47:                                               ; preds = %45, %19
  br label %48

48:                                               ; preds = %47, %15
  %49 = load i32, ptr %13, align 4
  ret i32 %49
}