; Function Attrs: nounwind uwtable
define i32 @ramdisk_register(i32 noundef %0, ptr noundef %1, i32 noundef %2, i16 noundef zeroext %3, i8 noundef zeroext %4) local_unnamed_addr #0 {
  %6 = alloca [16 x i8], align 16
  %7 = tail call noalias dereferenceable_or_null(16) ptr @zalloc(i64 noundef 16) #10
  %.not = icmp eq ptr %7, null
  br i1 %.not, label %17, label %8

8:                                                ; preds = %5
  store i32 %2, ptr %7, align 8
  %9 = getelementptr inbounds nuw i8, ptr %7, i64 4
  store i16 %3, ptr %9, align 4
  %10 = getelementptr inbounds nuw i8, ptr %7, i64 8
  store ptr %1, ptr %10, align 8
  %11 = and i8 %4, 3
  %12 = getelementptr inbounds nuw i8, ptr %7, i64 7
  store i8 %11, ptr %12, align 1
  %13 = call i32 (ptr, i64, ptr, ...) @snprintf(ptr noundef nonnull dereferenceable(1) %6, i64 noundef 16, ptr noundef nonnull @.str, i32 noundef %0) #11
  %14 = call i32 @register_blockdriver(ptr noundef nonnull %6, ptr noundef nonnull @g_bops, i32 noundef 0, ptr noundef nonnull %7) #11
  %15 = icmp slt i32 %14, 0
  br i1 %15, label %16, label %17

16:                                               ; preds = %8
  call void @free(ptr noundef nonnull %7)
  br label %17

17:                                               ; preds = %8, %16, %5
  %.0 = phi i32 [ %14, %16 ], [ %14, %8 ], [ -12, %5 ]
  ret i32 %.0
}